Certificate:
    Data:
        Version: 1 (0x0)
        Serial Number: 1 (0x1)
        Signature Algorithm: md5WithRSAEncryption
        Issuer: O=Unipi/emailAddress=unipi@example.com, L=Pisa, ST=Pisa, C=IT, CN=CA
        Validity
            Not Before: Sep  4 07:55:05 2022 GMT
            Not After : Sep  4 07:55:05 2023 GMT
        Subject: C=IT, ST=Pisa, O=Unipi, CN=Server
        Subject Public Key Info:
            Public Key Algorithm: rsaEncryption
                RSA Public-Key: (1024 bit)
                Modulus:
                    00:b9:94:7a:13:ab:a5:dc:1b:2b:5e:01:53:2d:f7:
                    a5:f8:00:db:0c:c3:db:00:5d:9b:e2:27:77:3e:99:
                    75:70:f7:13:9f:ab:17:bf:da:8a:19:4a:4a:4e:af:
                    1c:62:30:f9:0f:f8:44:c7:c8:2a:81:5d:63:92:7d:
                    2a:28:09:88:fe:c3:7c:dd:00:b8:0f:67:e5:3d:6a:
                    55:69:46:65:55:c4:4a:61:93:87:b8:f5:ab:b4:7c:
                    41:f4:4d:e3:f8:73:06:9f:dd:00:57:59:fe:98:a4:
                    b8:02:c5:91:7f:cc:ad:a0:29:8e:22:5d:3e:6a:da:
                    d1:a8:64:03:9d:95:be:c2:1b
                Exponent: 65537 (0x10001)
    Signature Algorithm: md5WithRSAEncryption
         29:50:4d:1f:42:59:4b:01:73:2f:ca:46:d2:77:4f:9f:b3:c9:
         72:05:f4:7b:cf:f1:e3:59:16:78:48:6a:dd:28:a3:ea:e8:6f:
         41:d4:08:38:fb:79:3f:86:de:70:5f:09:44:d0:58:83:ed:4e:
         5a:a3:f0:e9:1a:19:c0:18:20:da:bd:97:2a:1b:6a:83:b2:fa:
         17:20:55:f9:e3:81:2c:39:6c:91:b2:5d:e9:f2:4e:38:f9:ed:
         c8:4f:f8:71:e4:b6:03:8b:27:1d:c8:1f:7d:56:69:b2:3a:fc:
         74:e3:71:c8:e2:5a:d8:2f:ae:3a:9a:d7:7e:2a:56:f7:c2:5d:
         20:06
-----BEGIN CERTIFICATE-----
MIICFjCCAX8CAQEwDQYJKoZIhvcNAQEEBQAwajEOMAwGA1UEChMFVW5pcGkxIDAe
BgkqhkiG9w0BCQEWEXVuaXBpQGV4YW1wbGUuY29tMQ0wCwYDVQQHEwRQaXNhMQ0w
CwYDVQQIEwRQaXNhMQswCQYDVQQGEwJJVDELMAkGA1UEAxMCQ0EwHhcNMjIwOTA0
MDc1NTA1WhcNMjMwOTA0MDc1NTA1WjA9MQswCQYDVQQGEwJJVDENMAsGA1UECBME
UGlzYTEOMAwGA1UEChMFVW5pcGkxDzANBgNVBAMTBlNlcnZlcjCBnzANBgkqhkiG
9w0BAQEFAAOBjQAwgYkCgYEAuZR6E6ul3BsrXgFTLfel+ADbDMPbAF2b4id3Ppl1
cPcTn6sXv9qKGUpKTq8cYjD5D/hEx8gqgV1jkn0qKAmI/sN83QC4D2flPWpVaUZl
VcRKYZOHuPWrtHxB9E3j+HMGn90AV1n+mKS4AsWRf8ytoCmOIl0+atrRqGQDnZW+
whsCAwEAATANBgkqhkiG9w0BAQQFAAOBgQApUE0fQllLAXMvykbSd0+fs8lyBfR7
z/HjWRZ4SGrdKKPq6G9B1Ag4+3k/ht5wXwlE0FiD7U5ao/DpGhnAGCDavZcqG2qD
svoXIFX544EsOWyRsl3p8k44+e3IT/hx5LYDiycdyB99VmmyOvx043HI4lrYL646
mtd+Klb3wl0gBg==
-----END CERTIFICATE-----
